; Function Attrs: mustprogress nofree norecurse nosync nounwind memory(argmem: readwrite) uwtable
define i32 @WasmEdge_ASTModuleListExports(ptr noundef readonly %0, ptr noundef writeonly %1, i32 noundef %2) local_unnamed_addr #14 personality ptr @__gxx_personality_v0 {
  %.not = icmp eq ptr %0, null
  br i1 %.not, label %21, label %4

4:                                                ; preds = %3
  %5 = getelementptr inbounds i8, ptr %0, i64 328
  %6 = load ptr, ptr %5, align 8
  %7 = getelementptr inbounds i8, ptr %0, i64 336
  %8 = load ptr, ptr %7, align 8
  %9 = ptrtoint ptr %8 to i64
  %10 = ptrtoint ptr %6 to i64
  %11 = sub i64 %9, %10
  %12 = sdiv exact i64 %11, 48
  %.not17 = icmp ne ptr %1, null
  %13 = icmp ne i32 %2, 0
  %or.cond = and i1 %.not17, %13
  br i1 %or.cond, label %.lr.ph, label %.critedge

.lr.ph:                                           ; preds = %4, %16
  %.019 = phi i32 [ %19, %16 ], [ 0, %4 ]
  %14 = zext i32 %.019 to i64
  %15 = icmp ugt i64 %12, %14
  br i1 %15, label %16, label %.critedge

16:                                               ; preds = %.lr.ph
  %17 = getelementptr inbounds %"class.WasmEdge::AST::ExportDesc", ptr %6, i64 %14
  %18 = getelementptr inbounds ptr, ptr %1, i64 %14
  store ptr %17, ptr %18, align 8
  %19 = add nuw i32 %.019, 1
  %exitcond.not = icmp eq i32 %19, %2
  br i1 %exitcond.not, label %.critedge, label %.lr.ph, !llvm.loop !31

.critedge:                                        ; preds = %16, %.lr.ph, %4
  %20 = trunc i64 %12 to i32
  br label %21

21:                                               ; preds = %3, %.critedge
  %.013 = phi i32 [ %20, %.critedge ], [ 0, %3 ]
  ret i32 %.013
}